target datalayout = "e-m:e-p270:32:32-p271:32:32-p272:64:64-i64:64-i128:128-f80:128-n8:16:32:64-S128"
target triple = "x86_64-pc-linux-gnu"

%class.mpz_matrix_manager = type { ptr, ptr }
%class.mpz_matrix = type { i32, i32, ptr }
%class.mpz = type { i32, i8, ptr }

; Function Attrs: inlinehint mustprogress nounwind uwtable
define linkonce_odr hidden noundef zeroext i1 @_ZNK3mpz8is_smallEv(ptr noundef nonnull align 8 dereferenceable(16) %0) #7 comdat align 2 {
  %2 = alloca ptr, align 8
  store ptr %0, ptr %2, align 8, !tbaa !27
  %3 = load ptr, ptr %2, align 8
  %4 = getelementptr inbounds nuw %class.mpz, ptr %3, i32 0, i32 1
  %5 = load i8, ptr %4, align 4
  %6 = and i8 %5, 1
  %7 = zext i8 %6 to i32
  %8 = icmp eq i32 %7, 0
  ret i1 %8
}

; Function Attrs: mustprogress nounwind uwtable
define linkonce_odr hidden void @_ZN3mpz3setEi(ptr noundef nonnull align 8 dereferenceable(16) %0, i32 noundef %1) #4 comdat align 2 {
  %3 = alloca ptr, align 8
  %4 = alloca i32, align 4
  store ptr %0, ptr %3, align 8, !tbaa !27
  store i32 %1, ptr %4, align 4, !tbaa !12
  %5 = load ptr, ptr %3, align 8
  %6 = load i32, ptr %4, align 4, !tbaa !12
  %7 = getelementptr inbounds nuw %class.mpz, ptr %5, i32 0, i32 0
  store i32 %6, ptr %7, align 8, !tbaa !28
  %8 = getelementptr inbounds nuw %class.mpz, ptr %5, i32 0, i32 1
  %9 = load i8, ptr %8, align 4
  %10 = and i8 %9, -2
  %11 = or i8 %10, 0
  store i8 %11, ptr %8, align 4
  ret void
}

; Function Attrs: inlinehint mustprogress nounwind uwtable
define linkonce_odr hidden noundef i32 @_ZNK3mpz5valueEv(ptr noundef nonnull align 8 dereferenceable(16) %0) #7 comdat align 2 {
  %2 = alloca ptr, align 8
  store ptr %0, ptr %2, align 8, !tbaa !27
  %3 = load ptr, ptr %2, align 8
  %4 = getelementptr inbounds nuw %class.mpz, ptr %3, i32 0, i32 0
  %5 = load i32, ptr %4, align 8, !tbaa !28
  ret i32 %5
}

; Function Attrs: mustprogress uwtable
define linkonce_odr hidden noundef zeroext i1 @_ZN11mpz_managerILb0EE8is_smallERK3mpz(ptr noundef nonnull align 8 dereferenceable(16) %0) #5 comdat align 2 {
  %2 = alloca ptr, align 8
  store ptr %0, ptr %2, align 8, !tbaa !27
  %3 = load ptr, ptr %2, align 8, !tbaa !27
  %4 = call noundef zeroext i1 @_ZNK3mpz8is_smallEv(ptr noundef nonnull align 8 dereferenceable(16) %3)
  ret i1 %4
}

; Function Attrs: mustprogress uwtable
define linkonce_odr hidden void @_ZN11mpz_managerILb0EE3delER3mpz(ptr noundef nonnull align 8 dereferenceable(600) %0, ptr noundef nonnull align 8 dereferenceable(16) %1) #5 comdat align 2 {
  %3 = alloca ptr, align 8
  %4 = alloca ptr, align 8
  store ptr %0, ptr %3, align 8, !tbaa !8
  store ptr %1, ptr %4, align 8, !tbaa !27
  %5 = load ptr, ptr %3, align 8
  %6 = load ptr, ptr %4, align 8, !tbaa !27
  call void @_ZN11mpz_managerILb0EE3delEPS0_R3mpz(ptr noundef %5, ptr noundef nonnull align 8 dereferenceable(16) %6)
  ret void
}

; Function Attrs: mustprogress uwtable
define linkonce_odr hidden void @_ZN11mpz_managerILb0EE3setER3mpzRKS1_(ptr noundef nonnull align 8 dereferenceable(600) %0, ptr noundef nonnull align 8 dereferenceable(16) %1, ptr noundef nonnull align 8 dereferenceable(16) %2) #5 comdat align 2 {
  %4 = alloca ptr, align 8
  %5 = alloca ptr, align 8
  %6 = alloca ptr, align 8
  store ptr %0, ptr %4, align 8, !tbaa !8
  store ptr %1, ptr %5, align 8, !tbaa !27
  store ptr %2, ptr %6, align 8, !tbaa !27
  %7 = load ptr, ptr %4, align 8
  %8 = load ptr, ptr %6, align 8, !tbaa !27
  %9 = call noundef zeroext i1 @_ZN11mpz_managerILb0EE8is_smallERK3mpz(ptr noundef nonnull align 8 dereferenceable(16) %8)
  br i1 %9, label %10, label %14

10:                                               ; preds = %3
  %11 = load ptr, ptr %5, align 8, !tbaa !27
  %12 = load ptr, ptr %6, align 8, !tbaa !27
  %13 = call noundef i32 @_ZNK3mpz5valueEv(ptr noundef nonnull align 8 dereferenceable(16) %12)
  call void @_ZN3mpz3setEi(ptr noundef nonnull align 8 dereferenceable(16) %11, i32 noundef %13)
  br label %17

14:                                               ; preds = %3
  %15 = load ptr, ptr %5, align 8, !tbaa !27
  %16 = load ptr, ptr %6, align 8, !tbaa !27
  call void @_ZN11mpz_managerILb0EE7big_setER3mpzRKS1_(ptr noundef nonnull align 8 dereferenceable(600) %7, ptr noundef nonnull align 8 dereferenceable(16) %15, ptr noundef nonnull align 8 dereferenceable(16) %16)
  br label %17

17:                                               ; preds = %14, %10
  ret void
}

; Function Attrs: mustprogress nounwind uwtable
define linkonce_odr hidden noundef nonnull align 8 dereferenceable(16) ptr @_ZNK10mpz_matrixclEjj(ptr noundef nonnull align 8 dereferenceable(16) %0, i32 noundef %1, i32 noundef %2) #4 comdat align 2 {
  %4 = alloca ptr, align 8
  %5 = alloca i32, align 4
  %6 = alloca i32, align 4
  store ptr %0, ptr %4, align 8, !tbaa !14
  store i32 %1, ptr %5, align 4, !tbaa !12
  store i32 %2, ptr %6, align 4, !tbaa !12
  %7 = load ptr, ptr %4, align 8
  %8 = getelementptr inbounds nuw %class.mpz_matrix, ptr %7, i32 0, i32 2
  %9 = load ptr, ptr %8, align 8, !tbaa !23
  %10 = load i32, ptr %5, align 4, !tbaa !12
  %11 = getelementptr inbounds nuw %class.mpz_matrix, ptr %7, i32 0, i32 1
  %12 = load i32, ptr %11, align 4, !tbaa !19
  %13 = mul i32 %10, %12
  %14 = load i32, ptr %6, align 4, !tbaa !12
  %15 = add i32 %13, %14
  %16 = zext i32 %15 to i64
  %17 = getelementptr inbounds nuw %class.mpz, ptr %9, i64 %16
  ret ptr %17
}

; Function Attrs: mustprogress nounwind uwtable
define linkonce_odr hidden noundef nonnull align 8 dereferenceable(16) ptr @_ZN10mpz_matrixclEjj(ptr noundef nonnull align 8 dereferenceable(16) %0, i32 noundef %1, i32 noundef %2) #4 comdat align 2 {
  %4 = alloca ptr, align 8
  %5 = alloca i32, align 4
  %6 = alloca i32, align 4
  store ptr %0, ptr %4, align 8, !tbaa !14
  store i32 %1, ptr %5, align 4, !tbaa !12
  store i32 %2, ptr %6, align 4, !tbaa !12
  %7 = load ptr, ptr %4, align 8
  %8 = getelementptr inbounds nuw %class.mpz_matrix, ptr %7, i32 0, i32 2
  %9 = load ptr, ptr %8, align 8, !tbaa !23
  %10 = load i32, ptr %5, align 4, !tbaa !12
  %11 = getelementptr inbounds nuw %class.mpz_matrix, ptr %7, i32 0, i32 1
  %12 = load i32, ptr %11, align 4, !tbaa !19
  %13 = mul i32 %10, %12
  %14 = load i32, ptr %6, align 4, !tbaa !12
  %15 = add i32 %13, %14
  %16 = zext i32 %15 to i64
  %17 = getelementptr inbounds nuw %class.mpz, ptr %9, i64 %16
  ret ptr %17
}

; Function Attrs: mustprogress nounwind uwtable
define linkonce_odr hidden noundef nonnull align 8 dereferenceable(600) ptr @_ZNK18mpz_matrix_manager2nmEv(ptr noundef nonnull align 8 dereferenceable(16) %0) #4 comdat align 2 {
  %2 = alloca ptr, align 8
  store ptr %0, ptr %2, align 8, !tbaa !3
  %3 = load ptr, ptr %2, align 8
  %4 = getelementptr inbounds nuw %class.mpz_matrix_manager, ptr %3, i32 0, i32 0
  %5 = load ptr, ptr %4, align 8, !tbaa !32
  ret ptr %5
}

; Function Attrs: mustprogress uwtable
define hidden void @_ZN18mpz_matrix_manager3delER10mpz_matrix(ptr noundef nonnull align 8 dereferenceable(16) %0, ptr noundef nonnull align 8 dereferenceable(16) %1) #5 align 2 {
  %3 = alloca ptr, align 8
  %4 = alloca ptr, align 8
  %5 = alloca i32, align 4
  %6 = alloca i32, align 4
  %7 = alloca i32, align 4
  %8 = alloca i32, align 4
  store ptr %0, ptr %3, align 8, !tbaa !3
  store ptr %1, ptr %4, align 8, !tbaa !14
  %9 = load ptr, ptr %3, align 8
  %10 = load ptr, ptr %4, align 8, !tbaa !14
  %11 = getelementptr inbounds nuw %class.mpz_matrix, ptr %10, i32 0, i32 2
  %12 = load ptr, ptr %11, align 8, !tbaa !23
  %13 = icmp ne ptr %12, null
  br i1 %13, label %14, label %68

14:                                               ; preds = %2
  call void @llvm.lifetime.start.p0(i64 4, ptr %5) #3
  store i32 0, ptr %5, align 4, !tbaa !12
  br label %15

15:                                               ; preds = %40, %14
  %16 = load i32, ptr %5, align 4, !tbaa !12
  %17 = load ptr, ptr %4, align 8, !tbaa !14
  %18 = getelementptr inbounds nuw %class.mpz_matrix, ptr %17, i32 0, i32 0
  %19 = load i32, ptr %18, align 8, !tbaa !16
  %20 = icmp ult i32 %16, %19
  br i1 %20, label %22, label %21

21:                                               ; preds = %15
  store i32 2, ptr %6, align 4
  call void @llvm.lifetime.end.p0(i64 4, ptr %5) #3
  br label %43

22:                                               ; preds = %15
  call void @llvm.lifetime.start.p0(i64 4, ptr %7) #3
  store i32 0, ptr %7, align 4, !tbaa !12
  br label %23

23:                                               ; preds = %36, %22
  %24 = load i32, ptr %7, align 4, !tbaa !12
  %25 = load ptr, ptr %4, align 8, !tbaa !14
  %26 = getelementptr inbounds nuw %class.mpz_matrix, ptr %25, i32 0, i32 1
  %27 = load i32, ptr %26, align 4, !tbaa !19
  %28 = icmp ult i32 %24, %27
  br i1 %28, label %30, label %29

29:                                               ; preds = %23
  store i32 5, ptr %6, align 4
  call void @llvm.lifetime.end.p0(i64 4, ptr %7) #3
  br label %39

30:                                               ; preds = %23
  %31 = call noundef nonnull align 8 dereferenceable(600) ptr @_ZNK18mpz_matrix_manager2nmEv(ptr noundef nonnull align 8 dereferenceable(16) %9)
  %32 = load ptr, ptr %4, align 8, !tbaa !14
  %33 = load i32, ptr %5, align 4, !tbaa !12
  %34 = load i32, ptr %7, align 4, !tbaa !12
  %35 = call noundef nonnull align 8 dereferenceable(16) ptr @_ZN10mpz_matrixclEjj(ptr noundef nonnull align 8 dereferenceable(16) %32, i32 noundef %33, i32 noundef %34)
  call void @_ZN11mpz_managerILb0EE3delER3mpz(ptr noundef nonnull align 8 dereferenceable(600) %31, ptr noundef nonnull align 8 dereferenceable(16) %35)
  br label %36

36:                                               ; preds = %30
  %37 = load i32, ptr %7, align 4, !tbaa !12
  %38 = add i32 %37, 1
  store i32 %38, ptr %7, align 4, !tbaa !12
  br label %23, !llvm.loop !24

39:                                               ; preds = %29
  br label %40

40:                                               ; preds = %39
  %41 = load i32, ptr %5, align 4, !tbaa !12
  %42 = add i32 %41, 1
  store i32 %42, ptr %5, align 4, !tbaa !12
  br label %15, !llvm.loop !26

43:                                               ; preds = %21
  call void @llvm.lifetime.start.p0(i64 4, ptr %8) #3
  %44 = load ptr, ptr %4, align 8, !tbaa !14
  %45 = getelementptr inbounds nuw %class.mpz_matrix, ptr %44, i32 0, i32 0
  %46 = load i32, ptr %45, align 8, !tbaa !16
  %47 = zext i32 %46 to i64
  %48 = mul i64 16, %47
  %49 = load ptr, ptr %4, align 8, !tbaa !14
  %50 = getelementptr inbounds nuw %class.mpz_matrix, ptr %49, i32 0, i32 1
  %51 = load i32, ptr %50, align 4, !tbaa !19
  %52 = zext i32 %51 to i64
  %53 = mul i64 %48, %52
  %54 = trunc i64 %53 to i32
  store i32 %54, ptr %8, align 4, !tbaa !12
  %55 = getelementptr inbounds nuw %class.mpz_matrix_manager, ptr %9, i32 0, i32 1
  %56 = load ptr, ptr %55, align 8, !tbaa !20
  %57 = load i32, ptr %8, align 4, !tbaa !12
  %58 = zext i32 %57 to i64
  %59 = load ptr, ptr %4, align 8, !tbaa !14
  %60 = getelementptr inbounds nuw %class.mpz_matrix, ptr %59, i32 0, i32 2
  %61 = load ptr, ptr %60, align 8, !tbaa !23
  call void @_ZN22small_object_allocator10deallocateEmPv(ptr noundef nonnull align 8 dereferenceable(520) %56, i64 noundef %58, ptr noundef %61)
  %62 = load ptr, ptr %4, align 8, !tbaa !14
  %63 = getelementptr inbounds nuw %class.mpz_matrix, ptr %62, i32 0, i32 0
  store i32 0, ptr %63, align 8, !tbaa !16
  %64 = load ptr, ptr %4, align 8, !tbaa !14
  %65 = getelementptr inbounds nuw %class.mpz_matrix, ptr %64, i32 0, i32 1
  store i32 0, ptr %65, align 4, !tbaa !19
  %66 = load ptr, ptr %4, align 8, !tbaa !14
  %67 = getelementptr inbounds nuw %class.mpz_matrix, ptr %66, i32 0, i32 2
  store ptr null, ptr %67, align 8, !tbaa !23
  call void @llvm.lifetime.end.p0(i64 4, ptr %8) #3
  br label %68

68:                                               ; preds = %43, %2
  ret void
}

; Function Attrs: mustprogress uwtable
define hidden void @_ZN18mpz_matrix_manager3setER10mpz_matrixRKS0_(ptr noundef nonnull align 8 dereferenceable(16) %0, ptr noundef nonnull align 8 dereferenceable(16) %1, ptr noundef nonnull align 8 dereferenceable(16) %2) #5 align 2 {
  %4 = alloca ptr, align 8
  %5 = alloca ptr, align 8
  %6 = alloca ptr, align 8
  %7 = alloca i32, align 4
  %8 = alloca i32, align 4
  %9 = alloca i32, align 4
  store ptr %0, ptr %4, align 8, !tbaa !3
  store ptr %1, ptr %5, align 8, !tbaa !14
  store ptr %2, ptr %6, align 8, !tbaa !14
  %10 = load ptr, ptr %4, align 8
  %11 = load ptr, ptr %5, align 8, !tbaa !14
  %12 = load ptr, ptr %6, align 8, !tbaa !14
  %13 = icmp eq ptr %11, %12
  br i1 %13, label %14, label %15

14:                                               ; preds = %3
  br label %73

15:                                               ; preds = %3
  %16 = load ptr, ptr %5, align 8, !tbaa !14
  %17 = getelementptr inbounds nuw %class.mpz_matrix, ptr %16, i32 0, i32 0
  %18 = load i32, ptr %17, align 8, !tbaa !16
  %19 = load ptr, ptr %6, align 8, !tbaa !14
  %20 = getelementptr inbounds nuw %class.mpz_matrix, ptr %19, i32 0, i32 0
  %21 = load i32, ptr %20, align 8, !tbaa !16
  %22 = icmp ne i32 %18, %21
  br i1 %22, label %31, label %23

23:                                               ; preds = %15
  %24 = load ptr, ptr %5, align 8, !tbaa !14
  %25 = getelementptr inbounds nuw %class.mpz_matrix, ptr %24, i32 0, i32 1
  %26 = load i32, ptr %25, align 4, !tbaa !19
  %27 = load ptr, ptr %6, align 8, !tbaa !14
  %28 = getelementptr inbounds nuw %class.mpz_matrix, ptr %27, i32 0, i32 1
  %29 = load i32, ptr %28, align 4, !tbaa !19
  %30 = icmp ne i32 %26, %29
  br i1 %30, label %31, label %40

31:                                               ; preds = %23, %15
  %32 = load ptr, ptr %5, align 8, !tbaa !14
  call void @_ZN18mpz_matrix_manager3delER10mpz_matrix(ptr noundef nonnull align 8 dereferenceable(16) %10, ptr noundef nonnull align 8 dereferenceable(16) %32)
  %33 = load ptr, ptr %6, align 8, !tbaa !14
  %34 = getelementptr inbounds nuw %class.mpz_matrix, ptr %33, i32 0, i32 0
  %35 = load i32, ptr %34, align 8, !tbaa !16
  %36 = load ptr, ptr %6, align 8, !tbaa !14
  %37 = getelementptr inbounds nuw %class.mpz_matrix, ptr %36, i32 0, i32 1
  %38 = load i32, ptr %37, align 4, !tbaa !19
  %39 = load ptr, ptr %5, align 8, !tbaa !14
  call void @_ZN18mpz_matrix_manager2mkEjjR10mpz_matrix(ptr noundef nonnull align 8 dereferenceable(16) %10, i32 noundef %35, i32 noundef %38, ptr noundef nonnull align 8 dereferenceable(16) %39)
  br label %40

40:                                               ; preds = %31, %23
  call void @llvm.lifetime.start.p0(i64 4, ptr %7) #3
  store i32 0, ptr %7, align 4, !tbaa !12
  br label %41

41:                                               ; preds = %70, %40
  %42 = load i32, ptr %7, align 4, !tbaa !12
  %43 = load ptr, ptr %6, align 8, !tbaa !14
  %44 = getelementptr inbounds nuw %class.mpz_matrix, ptr %43, i32 0, i32 0
  %45 = load i32, ptr %44, align 8, !tbaa !16
  %46 = icmp ult i32 %42, %45
  br i1 %46, label %48, label %47

47:                                               ; preds = %41
  store i32 2, ptr %8, align 4
  call void @llvm.lifetime.end.p0(i64 4, ptr %7) #3
  br label %73

48:                                               ; preds = %41
  call void @llvm.lifetime.start.p0(i64 4, ptr %9) #3
  store i32 0, ptr %9, align 4, !tbaa !12
  br label %49

49:                                               ; preds = %66, %48
  %50 = load i32, ptr %9, align 4, !tbaa !12
  %51 = load ptr, ptr %6, align 8, !tbaa !14
  %52 = getelementptr inbounds nuw %class.mpz_matrix, ptr %51, i32 0, i32 1
  %53 = load i32, ptr %52, align 4, !tbaa !19
  %54 = icmp ult i32 %50, %53
  br i1 %54, label %56, label %55

55:                                               ; preds = %49
  store i32 5, ptr %8, align 4
  call void @llvm.lifetime.end.p0(i64 4, ptr %9) #3
  br label %69

56:                                               ; preds = %49
  %57 = call noundef nonnull align 8 dereferenceable(600) ptr @_ZNK18mpz_matrix_manager2nmEv(ptr noundef nonnull align 8 dereferenceable(16) %10)
  %58 = load ptr, ptr %5, align 8, !tbaa !14
  %59 = load i32, ptr %7, align 4, !tbaa !12
  %60 = load i32, ptr %9, align 4, !tbaa !12
  %61 = call noundef nonnull align 8 dereferenceable(16) ptr @_ZN10mpz_matrixclEjj(ptr noundef nonnull align 8 dereferenceable(16) %58, i32 noundef %59, i32 noundef %60)
  %62 = load ptr, ptr %6, align 8, !tbaa !14
  %63 = load i32, ptr %7, align 4, !tbaa !12
  %64 = load i32, ptr %9, align 4, !tbaa !12
  %65 = call noundef nonnull align 8 dereferenceable(16) ptr @_ZNK10mpz_matrixclEjj(ptr noundef nonnull align 8 dereferenceable(16) %62, i32 noundef %63, i32 noundef %64)
  call void @_ZN11mpz_managerILb0EE3setER3mpzRKS1_(ptr noundef nonnull align 8 dereferenceable(600) %57, ptr noundef nonnull align 8 dereferenceable(16) %61, ptr noundef nonnull align 8 dereferenceable(16) %65)
  br label %66

66:                                               ; preds = %56
  %67 = load i32, ptr %9, align 4, !tbaa !12
  %68 = add i32 %67, 1
  store i32 %68, ptr %9, align 4, !tbaa !12
  br label %49, !llvm.loop !33

69:                                               ; preds = %55
  br label %70

70:                                               ; preds = %69
  %71 = load i32, ptr %7, align 4, !tbaa !12
  %72 = add i32 %71, 1
  store i32 %72, ptr %7, align 4, !tbaa !12
  br label %41, !llvm.loop !34

73:                                               ; preds = %14, %47
  ret void
}