; Function Attrs: mustprogress uwtable
define hidden void @_ZN18mpz_matrix_manager3setER10mpz_matrixRKS0_(ptr noundef nonnull readonly align 8 captures(none) dereferenceable(16) %0, ptr noundef nonnull align 8 captures(address) dereferenceable(16) %1, ptr noundef nonnull readonly align 8 captures(address) dereferenceable(16) %2) local_unnamed_addr #4 align 2 {
  %4 = icmp eq ptr %1, %2
  br i1 %4, label %.loopexit, label %5

5:                                                ; preds = %3
  %6 = load i32, ptr %1, align 8, !tbaa !14
  %7 = load i32, ptr %2, align 8, !tbaa !14
  %.not = icmp eq i32 %6, %7
  br i1 %.not, label %8, label %13

8:                                                ; preds = %5
  %9 = getelementptr inbounds nuw i8, ptr %1, i64 4
  %10 = load i32, ptr %9, align 4, !tbaa !15
  %11 = getelementptr inbounds nuw i8, ptr %2, i64 4
  %12 = load i32, ptr %11, align 4, !tbaa !15
  %.not25 = icmp eq i32 %10, %12
  br i1 %.not25, label %44, label %13

13:                                               ; preds = %8, %5
  %14 = getelementptr inbounds nuw i8, ptr %1, i64 8
  %15 = load ptr, ptr %14, align 8, !tbaa !10
  %.not.i = icmp eq ptr %15, null
  br i1 %.not.i, label %_ZN18mpz_matrix_manager3delER10mpz_matrix.exit, label %.preheader19.i

.preheader19.i:                                   ; preds = %13
  %.not23.i = icmp eq i32 %6, 0
  %.phi.trans.insert.i = getelementptr inbounds nuw i8, ptr %1, i64 4
  %.pre28.i = load i32, ptr %.phi.trans.insert.i, align 4, !tbaa !15
  br i1 %.not23.i, label %._crit_edge22.i, label %.preheader.lr.ph.i

.preheader.lr.ph.i:                               ; preds = %.preheader19.i
  %.not24.i = icmp eq i32 %.pre28.i, 0
  br i1 %.not24.i, label %._crit_edge22.i, label %.preheader.i

.preheader.i:                                     ; preds = %.preheader.lr.ph.i, %._crit_edge.i
  %16 = phi i32 [ %26, %._crit_edge.i ], [ %.pre28.i, %.preheader.lr.ph.i ]
  %17 = phi i32 [ %27, %._crit_edge.i ], [ %6, %.preheader.lr.ph.i ]
  %18 = phi i32 [ %28, %._crit_edge.i ], [ %.pre28.i, %.preheader.lr.ph.i ]
  %.021.i = phi i32 [ %29, %._crit_edge.i ], [ 0, %.preheader.lr.ph.i ]
  %.not25.i = icmp eq i32 %18, 0
  br i1 %.not25.i, label %._crit_edge.i, label %.lr.ph.i

._crit_edge22.loopexit26.i:                       ; preds = %._crit_edge.i
  %.pre29.i = load ptr, ptr %14, align 8, !tbaa !10
  br label %._crit_edge22.i

._crit_edge22.i:                                  ; preds = %._crit_edge22.loopexit26.i, %.preheader.lr.ph.i, %.preheader19.i
  %19 = phi ptr [ %.pre29.i, %._crit_edge22.loopexit26.i ], [ %15, %.preheader.lr.ph.i ], [ %15, %.preheader19.i ]
  %20 = phi i32 [ %26, %._crit_edge22.loopexit26.i ], [ 0, %.preheader.lr.ph.i ], [ %.pre28.i, %.preheader19.i ]
  %.lcssa.i = phi i32 [ %27, %._crit_edge22.loopexit26.i ], [ %6, %.preheader.lr.ph.i ], [ 0, %.preheader19.i ]
  %21 = shl i32 %20, 4
  %22 = mul i32 %21, %.lcssa.i
  %23 = getelementptr inbounds nuw i8, ptr %0, i64 8
  %24 = load ptr, ptr %23, align 8, !tbaa !16
  %25 = zext i32 %22 to i64
  tail call void @_ZN22small_object_allocator10deallocateEmPv(ptr noundef nonnull align 8 dereferenceable(520) %24, i64 noundef %25, ptr noundef %19)
  tail call void @llvm.memset.p0.i64(ptr noundef nonnull align 8 dereferenceable(16) %1, i8 0, i64 16, i1 false)
  %.pre = load i32, ptr %2, align 8, !tbaa !14
  br label %_ZN18mpz_matrix_manager3delER10mpz_matrix.exit

._crit_edge.loopexit.i:                           ; preds = %.lr.ph.i
  %.pre.i = load i32, ptr %1, align 8, !tbaa !14
  br label %._crit_edge.i

._crit_edge.i:                                    ; preds = %._crit_edge.loopexit.i, %.preheader.i
  %26 = phi i32 [ %39, %._crit_edge.loopexit.i ], [ %16, %.preheader.i ]
  %27 = phi i32 [ %.pre.i, %._crit_edge.loopexit.i ], [ %17, %.preheader.i ]
  %28 = phi i32 [ %39, %._crit_edge.loopexit.i ], [ 0, %.preheader.i ]
  %29 = add nuw i32 %.021.i, 1
  %30 = icmp ult i32 %29, %27
  br i1 %30, label %.preheader.i, label %._crit_edge22.loopexit26.i, !llvm.loop !18

.lr.ph.i:                                         ; preds = %.preheader.i, %.lr.ph.i
  %31 = phi i32 [ %39, %.lr.ph.i ], [ %18, %.preheader.i ]
  %.01720.i = phi i32 [ %38, %.lr.ph.i ], [ 0, %.preheader.i ]
  %32 = load ptr, ptr %0, align 8, !tbaa !21
  %33 = load ptr, ptr %14, align 8, !tbaa !10
  %34 = mul i32 %31, %.021.i
  %35 = add i32 %34, %.01720.i
  %36 = zext i32 %35 to i64
  %37 = getelementptr inbounds nuw %class.mpz, ptr %33, i64 %36
  tail call void @_ZN11mpz_managerILb0EE3delEPS0_R3mpz(ptr noundef nonnull align 8 dereferenceable(600) %32, ptr noundef nonnull align 8 dereferenceable(16) %37)
  %38 = add nuw i32 %.01720.i, 1
  %39 = load i32, ptr %.phi.trans.insert.i, align 4, !tbaa !15
  %40 = icmp ult i32 %38, %39
  br i1 %40, label %.lr.ph.i, label %._crit_edge.loopexit.i, !llvm.loop !22

_ZN18mpz_matrix_manager3delER10mpz_matrix.exit:   ; preds = %13, %._crit_edge22.i
  %41 = phi i32 [ %7, %13 ], [ %.pre, %._crit_edge22.i ]
  %42 = getelementptr inbounds nuw i8, ptr %2, i64 4
  %43 = load i32, ptr %42, align 4, !tbaa !15
  tail call void @_ZN18mpz_matrix_manager2mkEjjR10mpz_matrix(ptr noundef nonnull align 8 dereferenceable(16) %0, i32 noundef %41, i32 noundef %43, ptr noundef nonnull align 8 dereferenceable(16) %1)
  %.pre36 = load i32, ptr %2, align 8, !tbaa !14
  br label %44

44:                                               ; preds = %_ZN18mpz_matrix_manager3delER10mpz_matrix.exit, %8
  %45 = phi i32 [ %.pre36, %_ZN18mpz_matrix_manager3delER10mpz_matrix.exit ], [ %6, %8 ]
  %.not30 = icmp eq i32 %45, 0
  br i1 %.not30, label %.loopexit, label %.preheader.lr.ph

.preheader.lr.ph:                                 ; preds = %44
  %46 = getelementptr inbounds nuw i8, ptr %2, i64 4
  %47 = getelementptr inbounds nuw i8, ptr %1, i64 8
  %48 = getelementptr inbounds nuw i8, ptr %1, i64 4
  %49 = getelementptr inbounds nuw i8, ptr %2, i64 8
  %50 = load i32, ptr %46, align 4, !tbaa !15
  %.not31 = icmp eq i32 %50, 0
  br i1 %.not31, label %.loopexit, label %.preheader

.preheader:                                       ; preds = %.preheader.lr.ph, %._crit_edge
  %51 = phi i32 [ %53, %._crit_edge ], [ %45, %.preheader.lr.ph ]
  %52 = phi i32 [ %54, %._crit_edge ], [ %50, %.preheader.lr.ph ]
  %.02229 = phi i32 [ %55, %._crit_edge ], [ 0, %.preheader.lr.ph ]
  %.not32 = icmp eq i32 %52, 0
  br i1 %.not32, label %._crit_edge, label %.lr.ph

._crit_edge.loopexit:                             ; preds = %_ZN11mpz_managerILb0EE3setER3mpzRKS1_.exit
  %.pre37 = load i32, ptr %2, align 8, !tbaa !14
  br label %._crit_edge

._crit_edge:                                      ; preds = %._crit_edge.loopexit, %.preheader
  %53 = phi i32 [ %.pre37, %._crit_edge.loopexit ], [ %51, %.preheader ]
  %54 = phi i32 [ %81, %._crit_edge.loopexit ], [ 0, %.preheader ]
  %55 = add nuw i32 %.02229, 1
  %56 = icmp ult i32 %55, %53
  br i1 %56, label %.preheader, label %.loopexit, !llvm.loop !27

.lr.ph:                                           ; preds = %.preheader, %_ZN11mpz_managerILb0EE3setER3mpzRKS1_.exit
  %57 = phi i32 [ %81, %_ZN11mpz_managerILb0EE3setER3mpzRKS1_.exit ], [ %52, %.preheader ]
  %.028 = phi i32 [ %80, %_ZN11mpz_managerILb0EE3setER3mpzRKS1_.exit ], [ 0, %.preheader ]
  %58 = load ptr, ptr %47, align 8, !tbaa !10
  %59 = load i32, ptr %48, align 4, !tbaa !15
  %60 = mul i32 %59, %.02229
  %61 = add i32 %60, %.028
  %62 = zext i32 %61 to i64
  %63 = getelementptr inbounds nuw %class.mpz, ptr %58, i64 %62
  %64 = load ptr, ptr %49, align 8, !tbaa !10
  %65 = mul i32 %57, %.02229
  %66 = add i32 %65, %.028
  %67 = zext i32 %66 to i64
  %68 = getelementptr inbounds nuw %class.mpz, ptr %64, i64 %67
  %69 = getelementptr inbounds nuw i8, ptr %68, i64 4
  %70 = load i8, ptr %69, align 4
  %71 = and i8 %70, 1
  %72 = icmp eq i8 %71, 0
  br i1 %72, label %73, label %78

73:                                               ; preds = %.lr.ph
  %74 = load i32, ptr %68, align 8, !tbaa !23
  store i32 %74, ptr %63, align 8, !tbaa !23
  %75 = getelementptr inbounds nuw i8, ptr %63, i64 4
  %76 = load i8, ptr %75, align 4
  %77 = and i8 %76, -2
  store i8 %77, ptr %75, align 4
  br label %_ZN11mpz_managerILb0EE3setER3mpzRKS1_.exit

78:                                               ; preds = %.lr.ph
  %79 = load ptr, ptr %0, align 8, !tbaa !21
  tail call void @_ZN11mpz_managerILb0EE7big_setER3mpzRKS1_(ptr noundef nonnull align 8 dereferenceable(600) %79, ptr noundef nonnull align 8 dereferenceable(16) %63, ptr noundef nonnull align 8 dereferenceable(16) %68)
  br label %_ZN11mpz_managerILb0EE3setER3mpzRKS1_.exit

_ZN11mpz_managerILb0EE3setER3mpzRKS1_.exit:       ; preds = %73, %78
  %80 = add nuw i32 %.028, 1
  %81 = load i32, ptr %46, align 4, !tbaa !15
  %82 = icmp ult i32 %80, %81
  br i1 %82, label %.lr.ph, label %._crit_edge.loopexit, !llvm.loop !28

.loopexit:                                        ; preds = %._crit_edge, %.preheader.lr.ph, %44, %3
  ret void
}